target datalayout = "e-m:e-p270:32:32-p271:32:32-p272:64:64-i64:64-i128:128-f80:128-n8:16:32:64-S128"
target triple = "x86_64-pc-linux-gnu"

%"class.Imf_3_4::Context" = type { %"class.std::shared_ptr" }
%"class.std::shared_ptr" = type { %"class.std::__shared_ptr" }
%"class.std::__shared_ptr" = type { ptr, %"class.std::__shared_count" }
%"class.std::__shared_count" = type { ptr }
%"struct.std::_Rb_tree_node_base" = type { i32, ptr, ptr, ptr }
%"class.Imf_3_4::InputFile" = type { %"class.Imf_3_4::Context", %"class.std::shared_ptr.16" }
%"class.std::shared_ptr.16" = type { %"class.std::__shared_ptr.17" }
%"class.std::__shared_ptr.17" = type { ptr, %"class.std::__shared_count" }
%"class.Imf_3_4::Name" = type { [256 x i8] }
%"struct.Imf_3_4::Channel" = type <{ i32, i32, i32, i8, [3 x i8] }>
%"class.Imf_3_4::ChannelList::ConstIterator" = type { %"struct.std::_Rb_tree_const_iterator" }
%"struct.std::_Rb_tree_const_iterator" = type { ptr }
%"struct.std::pair.50" = type { %"class.Imf_3_4::Name", %"struct.Imf_3_4::Channel" }
%"struct.std::_Rb_tree_node.52" = type { %"struct.std::_Rb_tree_node_base", %"struct.__gnu_cxx::__aligned_membuf.53" }
%"struct.__gnu_cxx::__aligned_membuf.53" = type { [272 x i8] }

@.str.18 = private unnamed_addr constant [2 x i8] c"G\00", align 1

; Function Attrs: mustprogress nounwind uwtable
define linkonce_odr dso_local noundef ptr @_ZNK9__gnu_cxx16__aligned_membufISt4pairIKN7Imf_3_44NameENS2_7ChannelEEE7_M_addrEv(ptr noundef nonnull align 4 dereferenceable(272) %0) #5 comdat align 2 {
  %2 = alloca ptr, align 8
  store ptr %0, ptr %2, align 8, !tbaa !316
  %3 = load ptr, ptr %2, align 8
  %4 = getelementptr inbounds nuw %"struct.__gnu_cxx::__aligned_membuf.53", ptr %3, i32 0, i32 0
  ret ptr %4
}

; Function Attrs: mustprogress nounwind uwtable
define linkonce_odr dso_local noundef ptr @_ZNK9__gnu_cxx16__aligned_membufISt4pairIKN7Imf_3_44NameENS2_7ChannelEEE6_M_ptrEv(ptr noundef nonnull align 4 dereferenceable(272) %0) #5 comdat align 2 {
  %2 = alloca ptr, align 8
  store ptr %0, ptr %2, align 8, !tbaa !316
  %3 = load ptr, ptr %2, align 8
  %4 = call noundef ptr @_ZNK9__gnu_cxx16__aligned_membufISt4pairIKN7Imf_3_44NameENS2_7ChannelEEE7_M_addrEv(ptr noundef nonnull align 4 dereferenceable(272) %3) #3
  ret ptr %4
}

; Function Attrs: noinline noreturn nounwind uwtable
define linkonce_odr hidden void @__clang_call_terminate(ptr noundef %0) #14 comdat {
  %2 = call ptr @__cxa_begin_catch(ptr %0) #3
  call void @_ZSt9terminatev() #25
  unreachable
}

; Function Attrs: mustprogress nounwind uwtable
define linkonce_odr dso_local noundef ptr @_ZNKSt13_Rb_tree_nodeISt4pairIKN7Imf_3_44NameENS1_7ChannelEEE9_M_valptrEv(ptr noundef nonnull align 8 dereferenceable(304) %0) #5 comdat align 2 {
  %2 = alloca ptr, align 8
  store ptr %0, ptr %2, align 8, !tbaa !314
  %3 = load ptr, ptr %2, align 8
  %4 = getelementptr inbounds nuw %"struct.std::_Rb_tree_node.52", ptr %3, i32 0, i32 1
  %5 = call noundef ptr @_ZNK9__gnu_cxx16__aligned_membufISt4pairIKN7Imf_3_44NameENS2_7ChannelEEE6_M_ptrEv(ptr noundef nonnull align 4 dereferenceable(272) %4) #3
  ret ptr %5
}

; Function Attrs: mustprogress nounwind uwtable
define linkonce_odr dso_local noundef zeroext i1 @_ZSteqRKSt23_Rb_tree_const_iteratorISt4pairIKN7Imf_3_44NameENS1_7ChannelEEES8_(ptr noundef nonnull align 8 dereferenceable(8) %0, ptr noundef nonnull align 8 dereferenceable(8) %1) #5 comdat {
  %3 = alloca ptr, align 8
  %4 = alloca ptr, align 8
  store ptr %0, ptr %3, align 8, !tbaa !310
  store ptr %1, ptr %4, align 8, !tbaa !310
  %5 = load ptr, ptr %3, align 8, !tbaa !310
  %6 = getelementptr inbounds nuw %"struct.std::_Rb_tree_const_iterator", ptr %5, i32 0, i32 0
  %7 = load ptr, ptr %6, align 8, !tbaa !312
  %8 = load ptr, ptr %4, align 8, !tbaa !310
  %9 = getelementptr inbounds nuw %"struct.std::_Rb_tree_const_iterator", ptr %8, i32 0, i32 0
  %10 = load ptr, ptr %9, align 8, !tbaa !312
  %11 = icmp eq ptr %7, %10
  ret i1 %11
}

; Function Attrs: mustprogress nounwind uwtable
define linkonce_odr dso_local noundef nonnull align 8 dereferenceable(8) ptr @_ZNSt23_Rb_tree_const_iteratorISt4pairIKN7Imf_3_44NameENS1_7ChannelEEEppEv(ptr noundef nonnull align 8 dereferenceable(8) %0) #5 comdat align 2 {
  %2 = alloca ptr, align 8
  store ptr %0, ptr %2, align 8, !tbaa !310
  %3 = load ptr, ptr %2, align 8
  %4 = getelementptr inbounds nuw %"struct.std::_Rb_tree_const_iterator", ptr %3, i32 0, i32 0
  %5 = load ptr, ptr %4, align 8, !tbaa !312
  %6 = call noundef ptr @_ZSt18_Rb_tree_incrementPKSt18_Rb_tree_node_base(ptr noundef %5) #23
  %7 = getelementptr inbounds nuw %"struct.std::_Rb_tree_const_iterator", ptr %3, i32 0, i32 0
  store ptr %6, ptr %7, align 8, !tbaa !312
  ret ptr %3
}

; Function Attrs: mustprogress nounwind uwtable
define linkonce_odr dso_local noundef ptr @_ZNKSt23_Rb_tree_const_iteratorISt4pairIKN7Imf_3_44NameENS1_7ChannelEEEptEv(ptr noundef nonnull align 8 dereferenceable(8) %0) #5 comdat align 2 personality ptr @__gxx_personality_v0 {
  %2 = alloca ptr, align 8
  store ptr %0, ptr %2, align 8, !tbaa !310
  %3 = load ptr, ptr %2, align 8
  %4 = getelementptr inbounds nuw %"struct.std::_Rb_tree_const_iterator", ptr %3, i32 0, i32 0
  %5 = load ptr, ptr %4, align 8, !tbaa !312
  %6 = invoke noundef ptr @_ZNKSt13_Rb_tree_nodeISt4pairIKN7Imf_3_44NameENS1_7ChannelEEE9_M_valptrEv(ptr noundef nonnull align 8 dereferenceable(304) %5)
          to label %7 unwind label %8

7:                                                ; preds = %1
  ret ptr %6

8:                                                ; preds = %1
  %9 = landingpad { ptr, i32 }
          catch ptr null
  %10 = extractvalue { ptr, i32 } %9, 0
  call void @__clang_call_terminate(ptr %10) #25
  unreachable
}

; Function Attrs: inlinehint mustprogress nounwind uwtable
define linkonce_odr dso_local noundef zeroext i1 @_ZN7Imf_3_4eqERKNS_11ChannelList13ConstIteratorES3_(ptr noundef nonnull align 8 dereferenceable(8) %0, ptr noundef nonnull align 8 dereferenceable(8) %1) #10 comdat {
  %3 = alloca ptr, align 8
  %4 = alloca ptr, align 8
  store ptr %0, ptr %3, align 8, !tbaa !185
  store ptr %1, ptr %4, align 8, !tbaa !185
  %5 = load ptr, ptr %3, align 8, !tbaa !185
  %6 = getelementptr inbounds nuw %"class.Imf_3_4::ChannelList::ConstIterator", ptr %5, i32 0, i32 0
  %7 = load ptr, ptr %4, align 8, !tbaa !185
  %8 = getelementptr inbounds nuw %"class.Imf_3_4::ChannelList::ConstIterator", ptr %7, i32 0, i32 0
  %9 = call noundef zeroext i1 @_ZSteqRKSt23_Rb_tree_const_iteratorISt4pairIKN7Imf_3_44NameENS1_7ChannelEEES8_(ptr noundef nonnull align 8 dereferenceable(8) %6, ptr noundef nonnull align 8 dereferenceable(8) %8) #3
  ret i1 %9
}

; Function Attrs: inlinehint mustprogress nounwind uwtable
define linkonce_odr dso_local noundef nonnull align 8 dereferenceable(8) ptr @_ZN7Imf_3_411ChannelList13ConstIteratorppEv(ptr noundef nonnull align 8 dereferenceable(8) %0) #10 comdat align 2 {
  %2 = alloca ptr, align 8
  store ptr %0, ptr %2, align 8, !tbaa !185
  %3 = load ptr, ptr %2, align 8
  %4 = getelementptr inbounds nuw %"class.Imf_3_4::ChannelList::ConstIterator", ptr %3, i32 0, i32 0
  %5 = call noundef nonnull align 8 dereferenceable(8) ptr @_ZNSt23_Rb_tree_const_iteratorISt4pairIKN7Imf_3_44NameENS1_7ChannelEEEppEv(ptr noundef nonnull align 8 dereferenceable(8) %4) #3
  ret ptr %3
}

; Function Attrs: inlinehint mustprogress nounwind uwtable
define linkonce_odr dso_local noundef nonnull align 4 dereferenceable(13) ptr @_ZNK7Imf_3_411ChannelList13ConstIterator7channelEv(ptr noundef nonnull align 8 dereferenceable(8) %0) #10 comdat align 2 {
  %2 = alloca ptr, align 8
  store ptr %0, ptr %2, align 8, !tbaa !185
  %3 = load ptr, ptr %2, align 8
  %4 = getelementptr inbounds nuw %"class.Imf_3_4::ChannelList::ConstIterator", ptr %3, i32 0, i32 0
  %5 = call noundef ptr @_ZNKSt23_Rb_tree_const_iteratorISt4pairIKN7Imf_3_44NameENS1_7ChannelEEEptEv(ptr noundef nonnull align 8 dereferenceable(8) %4) #3
  %6 = getelementptr inbounds nuw %"struct.std::pair.50", ptr %5, i32 0, i32 1
  ret ptr %6
}

; Function Attrs: inlinehint mustprogress uwtable
define linkonce_odr dso_local noundef zeroext i1 @_ZN7Imf_3_4neERKNS_11ChannelList13ConstIteratorES3_(ptr noundef nonnull align 8 dereferenceable(8) %0, ptr noundef nonnull align 8 dereferenceable(8) %1) #8 comdat {
  %3 = alloca ptr, align 8
  %4 = alloca ptr, align 8
  store ptr %0, ptr %3, align 8, !tbaa !185
  store ptr %1, ptr %4, align 8, !tbaa !185
  %5 = load ptr, ptr %3, align 8, !tbaa !185
  %6 = load ptr, ptr %4, align 8, !tbaa !185
  %7 = call noundef zeroext i1 @_ZN7Imf_3_4eqERKNS_11ChannelList13ConstIteratorES3_(ptr noundef nonnull align 8 dereferenceable(8) %5, ptr noundef nonnull align 8 dereferenceable(8) %6)
  %8 = xor i1 %7, true
  ret i1 %8
}

; Function Attrs: mustprogress uwtable
define dso_local void @_Z12readChannelsPKc(ptr noundef %0) #6 personality ptr @__gxx_personality_v0 {
  %2 = alloca ptr, align 8
  %3 = alloca %"class.Imf_3_4::InputFile", align 8
  %4 = alloca ptr, align 8
  %5 = alloca ptr, align 8
  %6 = alloca i32, align 4
  %7 = alloca %"class.Imf_3_4::ChannelList::ConstIterator", align 8
  %8 = alloca %"class.Imf_3_4::ChannelList::ConstIterator", align 8
  %9 = alloca ptr, align 8
  %10 = alloca ptr, align 8
  %11 = alloca ptr, align 8
  store ptr %0, ptr %2, align 8, !tbaa !11
  call void @llvm.lifetime.start.p0(i64 32, ptr %3) #3
  %12 = load ptr, ptr %2, align 8, !tbaa !11
  %13 = call noundef i32 @_ZN7Imf_3_417globalThreadCountEv()
  call void @_ZN7Imf_3_49InputFileC1EPKci(ptr noundef nonnull align 8 dereferenceable(32) %3, ptr noundef %12, i32 noundef %13)
  call void @llvm.lifetime.start.p0(i64 8, ptr %4) #3
  %14 = invoke noundef nonnull align 8 dereferenceable(49) ptr @_ZNK7Imf_3_49InputFile6headerEv(ptr noundef nonnull align 8 dereferenceable(32) %3)
          to label %15 unwind label %32

15:                                               ; preds = %1
  %16 = invoke noundef nonnull align 8 dereferenceable(48) ptr @_ZNK7Imf_3_46Header8channelsEv(ptr noundef nonnull align 8 dereferenceable(49) %14)
          to label %17 unwind label %32

17:                                               ; preds = %15
  store ptr %16, ptr %4, align 8, !tbaa !180
  call void @llvm.lifetime.start.p0(i64 8, ptr %7) #3
  %18 = load ptr, ptr %4, align 8, !tbaa !180
  %19 = invoke ptr @_ZNK7Imf_3_411ChannelList5beginEv(ptr noundef nonnull align 8 dereferenceable(48) %18)
          to label %20 unwind label %36

20:                                               ; preds = %17
  %21 = getelementptr inbounds nuw %"class.Imf_3_4::ChannelList::ConstIterator", ptr %7, i32 0, i32 0
  %22 = getelementptr inbounds nuw %"struct.std::_Rb_tree_const_iterator", ptr %21, i32 0, i32 0
  store ptr %19, ptr %22, align 8
  br label %23

23:                                               ; preds = %49, %20
  call void @llvm.lifetime.start.p0(i64 8, ptr %8) #3
  %24 = load ptr, ptr %4, align 8, !tbaa !180
  %25 = invoke ptr @_ZNK7Imf_3_411ChannelList3endEv(ptr noundef nonnull align 8 dereferenceable(48) %24)
          to label %26 unwind label %40

26:                                               ; preds = %23
  %27 = getelementptr inbounds nuw %"class.Imf_3_4::ChannelList::ConstIterator", ptr %8, i32 0, i32 0
  %28 = getelementptr inbounds nuw %"struct.std::_Rb_tree_const_iterator", ptr %27, i32 0, i32 0
  store ptr %25, ptr %28, align 8
  %29 = invoke noundef zeroext i1 @_ZN7Imf_3_4neERKNS_11ChannelList13ConstIteratorES3_(ptr noundef nonnull align 8 dereferenceable(8) %7, ptr noundef nonnull align 8 dereferenceable(8) %8)
          to label %30 unwind label %40

30:                                               ; preds = %26
  call void @llvm.lifetime.end.p0(i64 8, ptr %8) #3
  br i1 %29, label %44, label %31

31:                                               ; preds = %30
  call void @llvm.lifetime.end.p0(i64 8, ptr %7) #3
  br label %55

32:                                               ; preds = %15, %1
  %33 = landingpad { ptr, i32 }
          cleanup
  %34 = extractvalue { ptr, i32 } %33, 0
  store ptr %34, ptr %5, align 8
  %35 = extractvalue { ptr, i32 } %33, 1
  store i32 %35, ptr %6, align 4
  br label %71

36:                                               ; preds = %47, %17
  %37 = landingpad { ptr, i32 }
          cleanup
  %38 = extractvalue { ptr, i32 } %37, 0
  store ptr %38, ptr %5, align 8
  %39 = extractvalue { ptr, i32 } %37, 1
  store i32 %39, ptr %6, align 4
  br label %54

40:                                               ; preds = %26, %23
  %41 = landingpad { ptr, i32 }
          cleanup
  %42 = extractvalue { ptr, i32 } %41, 0
  store ptr %42, ptr %5, align 8
  %43 = extractvalue { ptr, i32 } %41, 1
  store i32 %43, ptr %6, align 4
  call void @llvm.lifetime.end.p0(i64 8, ptr %8) #3
  br label %54

44:                                               ; preds = %30
  call void @llvm.lifetime.start.p0(i64 8, ptr %9) #3
  %45 = invoke noundef nonnull align 4 dereferenceable(13) ptr @_ZNK7Imf_3_411ChannelList13ConstIterator7channelEv(ptr noundef nonnull align 8 dereferenceable(8) %7)
          to label %46 unwind label %50

46:                                               ; preds = %44
  store ptr %45, ptr %9, align 8, !tbaa !182
  call void @llvm.lifetime.end.p0(i64 8, ptr %9) #3
  br label %47

47:                                               ; preds = %46
  %48 = invoke noundef nonnull align 8 dereferenceable(8) ptr @_ZN7Imf_3_411ChannelList13ConstIteratorppEv(ptr noundef nonnull align 8 dereferenceable(8) %7)
          to label %49 unwind label %36

49:                                               ; preds = %47
  br label %23, !llvm.loop !184

50:                                               ; preds = %44
  %51 = landingpad { ptr, i32 }
          cleanup
  %52 = extractvalue { ptr, i32 } %51, 0
  store ptr %52, ptr %5, align 8
  %53 = extractvalue { ptr, i32 } %51, 1
  store i32 %53, ptr %6, align 4
  call void @llvm.lifetime.end.p0(i64 8, ptr %9) #3
  br label %54

54:                                               ; preds = %50, %40, %36
  call void @llvm.lifetime.end.p0(i64 8, ptr %7) #3
  br label %71

55:                                               ; preds = %31
  call void @llvm.lifetime.start.p0(i64 8, ptr %10) #3
  %56 = load ptr, ptr %4, align 8, !tbaa !180
  %57 = invoke noundef nonnull align 4 dereferenceable(13) ptr @_ZNK7Imf_3_411ChannelListixEPKc(ptr noundef nonnull align 8 dereferenceable(48) %56, ptr noundef @.str.18)
          to label %58 unwind label %62

58:                                               ; preds = %55
  store ptr %57, ptr %10, align 8, !tbaa !182
  call void @llvm.lifetime.start.p0(i64 8, ptr %11) #3
  %59 = load ptr, ptr %4, align 8, !tbaa !180
  %60 = invoke noundef ptr @_ZNK7Imf_3_411ChannelList11findChannelEPKc(ptr noundef nonnull align 8 dereferenceable(48) %59, ptr noundef @.str.18)
          to label %61 unwind label %66

61:                                               ; preds = %58
  store ptr %60, ptr %11, align 8, !tbaa !182
  call void @llvm.lifetime.end.p0(i64 8, ptr %11) #3
  call void @llvm.lifetime.end.p0(i64 8, ptr %10) #3
  call void @llvm.lifetime.end.p0(i64 8, ptr %4) #3
  call void @_ZN7Imf_3_49InputFileD2Ev(ptr noundef nonnull align 8 dereferenceable(32) %3) #3
  call void @llvm.lifetime.end.p0(i64 32, ptr %3) #3
  ret void

62:                                               ; preds = %55
  %63 = landingpad { ptr, i32 }
          cleanup
  %64 = extractvalue { ptr, i32 } %63, 0
  store ptr %64, ptr %5, align 8
  %65 = extractvalue { ptr, i32 } %63, 1
  store i32 %65, ptr %6, align 4
  br label %70

66:                                               ; preds = %58
  %67 = landingpad { ptr, i32 }
          cleanup
  %68 = extractvalue { ptr, i32 } %67, 0
  store ptr %68, ptr %5, align 8
  %69 = extractvalue { ptr, i32 } %67, 1
  store i32 %69, ptr %6, align 4
  call void @llvm.lifetime.end.p0(i64 8, ptr %11) #3
  br label %70

70:                                               ; preds = %66, %62
  call void @llvm.lifetime.end.p0(i64 8, ptr %10) #3
  br label %71

71:                                               ; preds = %70, %54, %32
  call void @llvm.lifetime.end.p0(i64 8, ptr %4) #3
  call void @_ZN7Imf_3_49InputFileD2Ev(ptr noundef nonnull align 8 dereferenceable(32) %3) #3
  call void @llvm.lifetime.end.p0(i64 32, ptr %3) #3
  br label %72

72:                                               ; preds = %71
  %73 = load ptr, ptr %5, align 8
  %74 = load i32, ptr %6, align 4
  %75 = insertvalue { ptr, i32 } poison, ptr %73, 0
  %76 = insertvalue { ptr, i32 } %75, i32 %74, 1
  resume { ptr, i32 } %76
}