; Function Attrs: mustprogress uwtable
define dso_local void @_Z12readChannelsPKc(ptr noundef %0) local_unnamed_addr #8 personality ptr @__gxx_personality_v0 {
  %2 = alloca %"class.Imf_3_4::InputFile", align 8
  call void @llvm.lifetime.start.p0(i64 32, ptr nonnull %2) #36
  %3 = tail call noundef i32 @_ZN7Imf_3_417globalThreadCountEv()
  call void @_ZN7Imf_3_49InputFileC1EPKci(ptr noundef nonnull align 8 dereferenceable(32) %2, ptr noundef %0, i32 noundef %3)
  %4 = invoke noundef nonnull align 8 dereferenceable(49) ptr @_ZNK7Imf_3_49InputFile6headerEv(ptr noundef nonnull align 8 dereferenceable(32) %2)
          to label %5 unwind label %13

5:                                                ; preds = %1
  %6 = invoke noundef nonnull align 8 dereferenceable(48) ptr @_ZNK7Imf_3_46Header8channelsEv(ptr noundef nonnull align 8 dereferenceable(49) %4)
          to label %7 unwind label %13

7:                                                ; preds = %5
  %8 = invoke ptr @_ZNK7Imf_3_411ChannelList5beginEv(ptr noundef nonnull align 8 dereferenceable(48) %6)
          to label %.preheader unwind label %15

.preheader:                                       ; preds = %7, %19
  %.sroa.013.0 = phi ptr [ %20, %19 ], [ %8, %7 ]
  %9 = invoke ptr @_ZNK7Imf_3_411ChannelList3endEv(ptr noundef nonnull align 8 dereferenceable(48) %6)
          to label %10 unwind label %17

10:                                               ; preds = %.preheader
  %.not = icmp eq ptr %.sroa.013.0, %9
  br i1 %.not, label %11, label %19

11:                                               ; preds = %10
  %12 = invoke noundef nonnull align 4 dereferenceable(13) ptr @_ZNK7Imf_3_411ChannelListixEPKc(ptr noundef nonnull align 8 dereferenceable(48) %6, ptr noundef nonnull @.str.18)
          to label %21 unwind label %70

13:                                               ; preds = %5, %1
  %14 = landingpad { ptr, i32 }
          cleanup
  br label %74

15:                                               ; preds = %7
  %16 = landingpad { ptr, i32 }
          cleanup
  br label %74

17:                                               ; preds = %.preheader
  %18 = landingpad { ptr, i32 }
          cleanup
  br label %74

19:                                               ; preds = %10
  %20 = call noundef ptr @_ZSt18_Rb_tree_incrementPKSt18_Rb_tree_node_base(ptr noundef %.sroa.013.0) #41
  br label %.preheader, !llvm.loop !177

21:                                               ; preds = %11
  %22 = invoke noundef ptr @_ZNK7Imf_3_411ChannelList11findChannelEPKc(ptr noundef nonnull align 8 dereferenceable(48) %6, ptr noundef nonnull @.str.18)
          to label %23 unwind label %72

23:                                               ; preds = %21
  %24 = getelementptr inbounds nuw i8, ptr %2, i64 24
  %25 = load ptr, ptr %24, align 8, !tbaa !100
  %.not.i.i.i = icmp eq ptr %25, null
  br i1 %.not.i.i.i, label %_ZNSt12__shared_ptrIN7Imf_3_49InputFile4DataELN9__gnu_cxx12_Lock_policyE2EED2Ev.exit.i, label %26

26:                                               ; preds = %23
  %27 = getelementptr inbounds nuw i8, ptr %25, i64 8
  %28 = load atomic i64, ptr %27 acquire, align 8
  %29 = icmp eq i64 %28, 4294967297
  %30 = trunc i64 %28 to i32
  br i1 %29, label %31, label %39

31:                                               ; preds = %26
  store i32 0, ptr %27, align 8, !tbaa !103
  %32 = getelementptr inbounds nuw i8, ptr %25, i64 12
  store i32 0, ptr %32, align 4, !tbaa !105
  %33 = load ptr, ptr %25, align 8, !tbaa !15
  %34 = getelementptr inbounds nuw i8, ptr %33, i64 16
  %35 = load ptr, ptr %34, align 8
  call void %35(ptr noundef nonnull align 8 dereferenceable(16) %25) #36
  %36 = load ptr, ptr %25, align 8, !tbaa !15
  %37 = getelementptr inbounds nuw i8, ptr %36, i64 24
  %38 = load ptr, ptr %37, align 8
  call void %38(ptr noundef nonnull align 8 dereferenceable(16) %25) #36
  br label %_ZNSt12__shared_ptrIN7Imf_3_49InputFile4DataELN9__gnu_cxx12_Lock_policyE2EED2Ev.exit.i

39:                                               ; preds = %26
  %40 = load i8, ptr @__libc_single_threaded, align 1, !tbaa !39
  %.not.i.i.i.i = icmp eq i8 %40, 0
  br i1 %.not.i.i.i.i, label %43, label %41

41:                                               ; preds = %39
  %42 = add nsw i32 %30, -1
  store i32 %42, ptr %27, align 4, !tbaa !59
  br label %_ZN9__gnu_cxx27__exchange_and_add_dispatchEPii.exit.i.i.i.i

43:                                               ; preds = %39
  %44 = atomicrmw volatile add ptr %27, i32 -1 acq_rel, align 4
  br label %_ZN9__gnu_cxx27__exchange_and_add_dispatchEPii.exit.i.i.i.i

_ZN9__gnu_cxx27__exchange_and_add_dispatchEPii.exit.i.i.i.i: ; preds = %43, %41
  %.0.i.i.i.i.i = phi i32 [ %30, %41 ], [ %44, %43 ]
  %45 = icmp eq i32 %.0.i.i.i.i.i, 1
  br i1 %45, label %46, label %_ZNSt12__shared_ptrIN7Imf_3_49InputFile4DataELN9__gnu_cxx12_Lock_policyE2EED2Ev.exit.i, !prof !106

46:                                               ; preds = %_ZN9__gnu_cxx27__exchange_and_add_dispatchEPii.exit.i.i.i.i
  call void @_ZNSt16_Sp_counted_baseILN9__gnu_cxx12_Lock_policyE2EE24_M_release_last_use_coldEv(ptr noundef nonnull align 8 dereferenceable(16) %25) #36
  br label %_ZNSt12__shared_ptrIN7Imf_3_49InputFile4DataELN9__gnu_cxx12_Lock_policyE2EED2Ev.exit.i

_ZNSt12__shared_ptrIN7Imf_3_49InputFile4DataELN9__gnu_cxx12_Lock_policyE2EED2Ev.exit.i: ; preds = %46, %_ZN9__gnu_cxx27__exchange_and_add_dispatchEPii.exit.i.i.i.i, %31, %23
  %47 = getelementptr inbounds nuw i8, ptr %2, i64 8
  %48 = load ptr, ptr %47, align 8, !tbaa !100
  %.not.i.i.i1.i = icmp eq ptr %48, null
  br i1 %.not.i.i.i1.i, label %_ZN7Imf_3_49InputFileD2Ev.exit, label %49

49:                                               ; preds = %_ZNSt12__shared_ptrIN7Imf_3_49InputFile4DataELN9__gnu_cxx12_Lock_policyE2EED2Ev.exit.i
  %50 = getelementptr inbounds nuw i8, ptr %48, i64 8
  %51 = load atomic i64, ptr %50 acquire, align 8
  %52 = icmp eq i64 %51, 4294967297
  %53 = trunc i64 %51 to i32
  br i1 %52, label %54, label %62

54:                                               ; preds = %49
  store i32 0, ptr %50, align 8, !tbaa !103
  %55 = getelementptr inbounds nuw i8, ptr %48, i64 12
  store i32 0, ptr %55, align 4, !tbaa !105
  %56 = load ptr, ptr %48, align 8, !tbaa !15
  %57 = getelementptr inbounds nuw i8, ptr %56, i64 16
  %58 = load ptr, ptr %57, align 8
  call void %58(ptr noundef nonnull align 8 dereferenceable(16) %48) #36
  %59 = load ptr, ptr %48, align 8, !tbaa !15
  %60 = getelementptr inbounds nuw i8, ptr %59, i64 24
  %61 = load ptr, ptr %60, align 8
  call void %61(ptr noundef nonnull align 8 dereferenceable(16) %48) #36
  br label %_ZN7Imf_3_49InputFileD2Ev.exit

62:                                               ; preds = %49
  %63 = load i8, ptr @__libc_single_threaded, align 1, !tbaa !39
  %.not.i.i.i.i.i = icmp eq i8 %63, 0
  br i1 %.not.i.i.i.i.i, label %66, label %64

64:                                               ; preds = %62
  %65 = add nsw i32 %53, -1
  store i32 %65, ptr %50, align 4, !tbaa !59
  br label %_ZN9__gnu_cxx27__exchange_and_add_dispatchEPii.exit.i.i.i.i.i

66:                                               ; preds = %62
  %67 = atomicrmw volatile add ptr %50, i32 -1 acq_rel, align 4
  br label %_ZN9__gnu_cxx27__exchange_and_add_dispatchEPii.exit.i.i.i.i.i

_ZN9__gnu_cxx27__exchange_and_add_dispatchEPii.exit.i.i.i.i.i: ; preds = %66, %64
  %.0.i.i.i.i.i.i = phi i32 [ %53, %64 ], [ %67, %66 ]
  %68 = icmp eq i32 %.0.i.i.i.i.i.i, 1
  br i1 %68, label %69, label %_ZN7Imf_3_49InputFileD2Ev.exit, !prof !106

69:                                               ; preds = %_ZN9__gnu_cxx27__exchange_and_add_dispatchEPii.exit.i.i.i.i.i
  call void @_ZNSt16_Sp_counted_baseILN9__gnu_cxx12_Lock_policyE2EE24_M_release_last_use_coldEv(ptr noundef nonnull align 8 dereferenceable(16) %48) #36
  br label %_ZN7Imf_3_49InputFileD2Ev.exit

_ZN7Imf_3_49InputFileD2Ev.exit:                   ; preds = %_ZNSt12__shared_ptrIN7Imf_3_49InputFile4DataELN9__gnu_cxx12_Lock_policyE2EED2Ev.exit.i, %54, %_ZN9__gnu_cxx27__exchange_and_add_dispatchEPii.exit.i.i.i.i.i, %69
  call void @llvm.lifetime.end.p0(i64 32, ptr nonnull %2) #36
  ret void

70:                                               ; preds = %11
  %71 = landingpad { ptr, i32 }
          cleanup
  br label %74

72:                                               ; preds = %21
  %73 = landingpad { ptr, i32 }
          cleanup
  br label %74

74:                                               ; preds = %15, %17, %70, %72, %13
  %.pn10.pn = phi { ptr, i32 } [ %14, %13 ], [ %73, %72 ], [ %71, %70 ], [ %18, %17 ], [ %16, %15 ]
  call void @_ZN7Imf_3_49InputFileD2Ev(ptr noundef nonnull align 8 dereferenceable(32) %2) #36
  call void @llvm.lifetime.end.p0(i64 32, ptr nonnull %2) #36
  resume { ptr, i32 } %.pn10.pn
}